target datalayout = "e-m:e-p270:32:32-p271:32:32-p272:64:64-i64:64-i128:128-f80:128-n8:16:32:64-S128"
target triple = "x86_64-pc-linux-gnu"

%struct.ObjectPropertyType = type { ptr, i32, i32, i32, i32, i16, i16, i16, i16, i16, i32, i8 }

; Function Attrs: nounwind uwtable
define dso_local zeroext i1 @is_objectclass_supported(i32 noundef %0) #0 {
  %2 = alloca i1, align 1
  %3 = alloca i32, align 4
  %4 = alloca i32, align 4
  %5 = alloca i32, align 4
  store i32 %0, ptr %3, align 4
  call void @llvm.lifetime.start.p0(i64 4, ptr %4) #10
  store i32 0, ptr %4, align 4
  br label %6

6:                                                ; preds = %20, %1
  %7 = load i32, ptr %4, align 4
  %8 = sext i32 %7 to i64
  %9 = icmp ult i64 %8, 37
  br i1 %9, label %10, label %23

10:                                               ; preds = %6
  %11 = load i32, ptr %4, align 4
  %12 = sext i32 %11 to i64
  %13 = getelementptr inbounds [37 x %struct.ObjectPropertyType], ptr @ObjectProperty, i64 0, i64 %12
  %14 = getelementptr inbounds nuw %struct.ObjectPropertyType, ptr %13, i32 0, i32 1
  %15 = load i32, ptr %14, align 8
  %16 = load i32, ptr %3, align 4
  %17 = icmp eq i32 %15, %16
  br i1 %17, label %18, label %19

18:                                               ; preds = %10
  store i1 true, ptr %2, align 1
  store i32 1, ptr %5, align 4
  br label %24

19:                                               ; preds = %10
  br label %20

20:                                               ; preds = %19
  %21 = load i32, ptr %4, align 4
  %22 = add i32 %21, 1
  store i32 %22, ptr %4, align 4
  br label %6, !llvm.loop !12

23:                                               ; preds = %6
  store i1 false, ptr %2, align 1
  store i32 1, ptr %5, align 4
  br label %24

24:                                               ; preds = %23, %18
  call void @llvm.lifetime.end.p0(i64 4, ptr %4) #10
  %25 = load i1, ptr %2, align 1
  ret i1 %25
}