; Function Attrs: nofree norecurse nosync nounwind memory(none) uwtable
define dso_local zeroext i1 @is_objectclass_supported(i32 noundef %0) local_unnamed_addr #6 {
  br label %2

2:                                                ; preds = %2, %1
  %indvars.iv = phi i64 [ 0, %1 ], [ %indvars.iv.next, %2 ]
  %3 = getelementptr inbounds nuw [37 x %struct.ObjectPropertyType], ptr @ObjectProperty, i64 0, i64 %indvars.iv, i32 1
  %4 = load i32, ptr %3, align 8
  %5 = icmp eq i32 %4, %0
  %indvars.iv.next = add nuw nsw i64 %indvars.iv, 1
  %exitcond.not = icmp eq i64 %indvars.iv.next, 37
  %or.cond = select i1 %5, i1 true, i1 %exitcond.not
  br i1 %or.cond, label %6, label %2, !llvm.loop !11

6:                                                ; preds = %2
  ret i1 %5
}